target datalayout = "e-m:e-p270:32:32-p271:32:32-p272:64:64-i64:64-i128:128-f80:128-n8:16:32:64-S128"
target triple = "x86_64-pc-linux-gnu"

%class.elapsedTimer = type <{ i64, i64, i8, [7 x i8] }>

; Function Attrs: mustprogress nounwind uwtable
define hidden void @_ZN12elapsedTimer5startEv(ptr noundef nonnull align 8 dereferenceable(17) %0) #1 align 2 {
  %2 = alloca ptr, align 8
  store ptr %0, ptr %2, align 8
  %3 = load ptr, ptr %2, align 8
  %4 = getelementptr inbounds %class.elapsedTimer, ptr %3, i32 0, i32 2
  %5 = load i8, ptr %4, align 8
  %6 = trunc i8 %5 to i1
  br i1 %6, label %11, label %7

7:                                                ; preds = %1
  %8 = getelementptr inbounds %class.elapsedTimer, ptr %3, i32 0, i32 2
  store i8 1, ptr %8, align 8
  %9 = call noundef i64 @_ZN2os15elapsed_counterEv()
  %10 = getelementptr inbounds %class.elapsedTimer, ptr %3, i32 0, i32 1
  store i64 %9, ptr %10, align 8
  br label %11

11:                                               ; preds = %7, %1
  ret void
}