; Function Attrs: mustprogress nounwind uwtable
define hidden void @_ZN12elapsedTimer5startEv(ptr nocapture noundef nonnull align 8 dereferenceable(17) %0) local_unnamed_addr #0 align 2 {
  %2 = getelementptr inbounds i8, ptr %0, i64 16
  %3 = load i8, ptr %2, align 8
  %4 = trunc i8 %3 to i1
  br i1 %4, label %8, label %5

5:                                                ; preds = %1
  store i8 1, ptr %2, align 8
  %6 = tail call noundef i64 @_ZN2os15elapsed_counterEv() #6
  %7 = getelementptr inbounds i8, ptr %0, i64 8
  store i64 %6, ptr %7, align 8
  br label %8

8:                                                ; preds = %5, %1
  ret void
}